; Function Attrs: null_pointer_is_valid sspstrong uwtable
define range(i64 0, 4294967296) i64 @wscbor_chunk_mark_errors(ptr noundef %0, ptr noundef %1, ptr noundef readonly captures(none) %2) local_unnamed_addr #0 {
  %4 = alloca %struct.wscbor_expert_add_t, align 8
  call void @llvm.lifetime.start.p0(i64 16, ptr nonnull %4) #9
  store ptr %0, ptr %4, align 8
  %5 = getelementptr inbounds nuw i8, ptr %4, i64 8
  store ptr %1, ptr %5, align 8
  %6 = getelementptr inbounds nuw i8, ptr %2, i64 24
  %7 = load ptr, ptr %6, align 8
  call void @wmem_list_foreach(ptr noundef %7, ptr noundef nonnull @wscbor_expert_add, ptr noundef nonnull %4)
  %8 = load ptr, ptr %2, align 8
  %9 = getelementptr inbounds nuw i8, ptr %8, i64 8
  %10 = load ptr, ptr %9, align 8
  call void @wmem_list_foreach(ptr noundef %10, ptr noundef nonnull @wscbor_expert_add, ptr noundef nonnull %4)
  %11 = load ptr, ptr %6, align 8
  %12 = call i32 @wmem_list_count(ptr noundef %11)
  %13 = zext i32 %12 to i64
  call void @llvm.lifetime.end.p0(i64 16, ptr nonnull %4) #9
  ret i64 %13
}